MPASM 5.65                          MAIN.ASM   3-18-2016  15:07:15         PAGE  1


LOC  OBJECT CODE     LINE SOURCE TEXT
  VALUE

                      00001     list p=16f877                 ; list directive to define processor
                      00002       #include <p16f877.inc>        ; processor specific variable definitions
                      00001         LIST
                      00002 
                      00003 ;==========================================================================
                      00004 ; Build date : Dec 08 2015
                      00005 ;  MPASM PIC16F877 processor include
                      00006 ; 
                      00007 ;  (c) Copyright 1999-2015 Microchip Technology, All rights reserved
                      00008 ;==========================================================================
                      00009 
                      00541         LIST
2007   3F7A           00003       __CONFIG _CP_OFF & _WDT_OFF & _BODEN_ON & _PWRTE_OFF & _HS_OSC & _CPD_OFF & _LVP_OFF
                      00004 
                      00005 
                      00006         cblock  0x70
  00000070            00007                 COUNTH
  00000071            00008                 COUNTM  
  00000072            00009                 COUNTL  
  00000073            00010                 Table_Counter
  00000074            00011                 lcd_tmp 
  00000075            00012                 lcd_d1
  00000076            00013                 lcd_d2
  00000077            00014                 com     
  00000078            00015                 dat
  00000079            00016                 temp
  0000007A            00017                 table_tmp
  0000007B            00018                 table_entries
                      00019         endc    
                      00020 ;*******************************************************************************
                      00021 ; MACROS
                      00022 ;*******************************************************************************
                      00023         
                      00024 ;***************************************
                      00025 ; BANK0 macro   [TESTED]
                      00026 ;***************************************
                      00027 BANK0 Macro
                      00028     bcf STATUS,RP0 
                      00029     bcf STATUS,RP1
                      00030     endm
                      00031 ;***************************************
                      00032 ; BANK1 macro   [TESTED]
                      00033 ;***************************************
                      00034 BANK1 Macro
                      00035     bsf STATUS,RP0 
                      00036     bcf STATUS,RP1
                      00037     endm
                      00038         
                      00039 ;***************************************
                      00040 ; BANK2 macro   [TESTED]
                      00041 ;***************************************
                      00042 BANK2 Macro
                      00043     bsf STATUS,RP0 
MPASM 5.65                          MAIN.ASM   3-18-2016  15:07:15         PAGE  2


LOC  OBJECT CODE     LINE SOURCE TEXT
  VALUE

                      00044     bsf STATUS,RP1
                      00045     endm
                      00046     
                      00047 ;***************************************
                      00048 ; BANK3 macro   [TESTED]
                      00049 ;***************************************
                      00050 BANK3 Macro
                      00051     bcf STATUS,RP0 
                      00052     bsf STATUS,RP1
                      00053     endm
                      00054     
                      00055 ;***************************************
                      00056 ; MOVLF macro   [TESTED]
                      00057 ;***************************************
                      00058 MOVLF   Macro   literal, reg
                      00059     MOVLW  literal      ; move literal into working register
                      00060     MOVWF   reg         ; move working register into reg
                      00061     endm
                      00062 
                      00063 ;***************************************
                      00064 ; MOV   macro  reg2 <- reg1             [TESTED]        
                      00065 ;***************************************
                      00066 MOV     Macro   reg1, reg2
                      00067     MOVF  reg1,W        ; move reg1 into working register
                      00068     MOVWF   reg2        ; reg2 <- reg1
                      00069     endm
                      00070     
                      00071 ;***************************************
                      00072 ; ADDL macro, Adds literal and a reg    [TESTED]
                      00073 ;***************************************
                      00074 ADDL    Macro   Destination, reg, literal
                      00075     MOVLW  literal      ; move literal into working register
                      00076     ADDWF   reg,W       ; W <- literal + reg
                      00077     MOVWF   Destination ; Destination <- literal + reg
                      00078     endm
                      00079     
                      00080 ;***************************************
                      00081 ; ADD macro, Adds two registers together    [TESTED]
                      00082 ;***************************************
                      00083 ADD     Macro   Destination, reg1, reg2
                      00084     MOVF    reg1,W      ; move literal into working register
                      00085     ADDWF   reg2,W      ; W <- reg1 + reg2
                      00086     MOVWF   Destination ; Destination <- reg1 + reg2
                      00087     endm
                      00088 
                      00089     
                      00090          ORG       0x00000000     ;RESET vector must always be at 0x00
0000   2???           00091          goto      init_PIN       ;Just jump to the main code section.
                      00092            
                      00093 ;***************************************
                      00094 ; Initialize
                      00095 ;***************************************
0001                  00096 init_PIN
MPASM 5.65                          MAIN.ASM   3-18-2016  15:07:15         PAGE  3


LOC  OBJECT CODE     LINE SOURCE TEXT
  VALUE

0001   018B           00097          clrf      INTCON         ; No interrupts
                      00098          
                      00099          ; Set input and output types
0002   1683           00100          bsf       STATUS,RP0     ; select bank 1
Message[302]: Register in operand not in bank 0.  Ensure that bank bits are correct.
0003   0185           00101          clrf      TRISA          ; All port A is output
Message[302]: Register in operand not in bank 0.  Ensure that bank bits are correct.
0004   1605           00102          BSF       TRISA, 4       ; Set Rotary Encoder input pin
Message[302]: Register in operand not in bank 0.  Ensure that bank bits are correct.
0005   0186           00103          clrf      TRISB
Message[302]: Register in operand not in bank 0.  Ensure that bank bits are correct.
0006   0187           00104          clrf      TRISC          ; All port C is output
Message[302]: Register in operand not in bank 0.  Ensure that bank bits are correct.
0007   1407           00105          BSF       TRISC, 0       ; Set Rotary Encoder input pin
Message[302]: Register in operand not in bank 0.  Ensure that bank bits are correct.
0008   1487           00106          BSF       TRISC, 1       ; Set Rotary Encoder input pin
Message[302]: Register in operand not in bank 0.  Ensure that bank bits are correct.
0009   0188           00107          clrf      TRISD          ; All port D is output
                      00108 
                      00109          ; Set output values
000A   1283           00110          bcf       STATUS,RP0     ; select bank 0
000B   0185           00111          clrf      PORTA
000C   0186           00112          clrf      PORTB
000D   0187           00113          clrf      PORTC
000E   0188           00114          clrf      PORTD
                      00115 
000F   2???           00116     call Init_TMR0       
                      00117          
0010                  00118 Poll_Timer1
0010   0801           00119     movfw       TMR0
0011   3C05           00120     sublw       5               ; Skip if 
0012   1903           00121     btfsc       STATUS, Z       ; WREG is zero
0013   2???           00122     call        Set_LED
0014   2???           00123     call        Poll_Timer1
                      00124 
0015                  00125 Set_LED
0015   1405           00126     BSF PORTA, 0
0016   2???           00127     call STOP
                      00128   
0017   2???           00129 STOP    goto STOP
                      00130 
                      00131 ;***************************************
                      00132 ;Init_TMR0
                      00133 ;   Input:  RA4
                      00134 ;   Output: TMR0 register
                      00135 ;   desc:   Counts the clock pulses for the
                      00136 ;           rotary encoder
                      00137 ;****************************************
0018                  00138 Init_TMR0                           ; INITIALIZE TIMER 0   
0018   1683 1303      00139     BANKSEL OPTION_REG
                      00140     MOVLF   B'00101000', OPTION_REG
001A   3028               M     MOVLW  B'00101000'  ; move literal into working register
Message[302]: Register in operand not in bank 0.  Ensure that bank bits are correct.
MPASM 5.65                          MAIN.ASM   3-18-2016  15:07:15         PAGE  4


LOC  OBJECT CODE     LINE SOURCE TEXT
  VALUE

001B   0081               M     MOVWF   OPTION_REG  ; move working register into reg
                      00141     ;       B'0xxxxxxx'     RBPU - Set pull ups (0-enabled, 1-disabled)
                      00142     ;       B'x1xxxxxx'     INTEDG - Interupt on rising edge
                      00143     ;       B'xx1xxxxx'     T0CS - External clock on Pin RA4
                      00144     ;       B'xxx0xxxx'     T0SE - 0-Increment on low-to-high transition on T0CKI pin
                      00145     ;       B'xxxx1xxx'     PSA - Prescaler assigned to WDT
                      00146     ;       B'xxxxx0xx'     PS2 - Prescaler of 1:1
                      00147     ;       B'xxxxxx0x'     PS1 - Prescaler of 1:1
                      00148     ;       B'xxxxxxx0'     PS0 - Prescaler of 1:1
001C   1283 1303      00149     BANKSEL TMR0
001E   0181           00150     CLRF   TMR0                     ; Clear timer 0
001F   0008           00151     return   
                      00152     
3F7A                  00153         END
MPASM 5.65                          MAIN.ASM   3-18-2016  15:07:15         PAGE  5


SYMBOL TABLE
  LABEL                             VALUE 

ACKDT                             00000005
ACKEN                             00000004
ACKSTAT                           00000006
ADCON0                            0000001F
ADCON1                            0000009F
ADCS0                             00000006
ADCS1                             00000007
ADD                               
ADDEN                             00000003
ADDL                              
ADFM                              00000007
ADIE                              00000006
ADIF                              00000006
ADON                              00000000
ADRESH                            0000001E
ADRESL                            0000009E
BANK0                             
BANK1                             
BANK2                             
BANK3                             
BCLIE                             00000003
BCLIF                             00000003
BF                                00000000
BRGH                              00000002
C                                 00000000
CCP1CON                           00000017
CCP1IE                            00000002
CCP1IF                            00000002
CCP1M0                            00000000
CCP1M1                            00000001
CCP1M2                            00000002
CCP1M3                            00000003
CCP1X                             00000005
CCP1Y                             00000004
CCP2CON                           0000001D
CCP2IE                            00000000
CCP2IF                            00000000
CCP2M0                            00000000
CCP2M1                            00000001
CCP2M2                            00000002
CCP2M3                            00000003
CCP2X                             00000005
CCP2Y                             00000004
CCPR1                             00000015
CCPR1H                            00000016
CCPR1L                            00000015
CCPR2                             0000001B
CCPR2H                            0000001C
CCPR2L                            0000001B
CHS0                              00000003
CHS1                              00000004
CHS2                              00000005
CKE                               00000006
MPASM 5.65                          MAIN.ASM   3-18-2016  15:07:15         PAGE  6


SYMBOL TABLE
  LABEL                             VALUE 

CKP                               00000004
COUNTH                            00000070
COUNTL                            00000072
COUNTM                            00000071
CREN                              00000004
CSRC                              00000007
D                                 00000005
DATA_ADDRESS                      00000005
DC                                00000001
D_A                               00000005
D_NOT_A                           00000005
EEADR                             0000010D
EEADRH                            0000010F
EECON1                            0000018C
EECON2                            0000018D
EEDATA                            0000010C
EEDATH                            0000010E
EEIE                              00000004
EEIF                              00000004
EEPGD                             00000007
F                                 00000001
FERR                              00000002
FSR                               00000004
GCEN                              00000007
GIE                               00000007
GO                                00000002
GO_DONE                           00000002
GO_NOT_DONE                       00000002
I2C_DATA                          00000005
I2C_READ                          00000002
I2C_START                         00000003
I2C_STOP                          00000004
IBF                               00000007
IBOV                              00000005
INDF                              00000000
INTCON                            0000000B
INTE                              00000004
INTEDG                            00000006
INTF                              00000001
IRP                               00000007
Init_TMR0                         00000018
MOV                               
MOVLF                             
NOT_A                             00000005
NOT_ADDRESS                       00000005
NOT_BO                            00000000
NOT_BOR                           00000000
NOT_DONE                          00000002
NOT_PD                            00000003
NOT_POR                           00000001
NOT_RBPU                          00000007
NOT_RC8                           00000006
NOT_T1SYNC                        00000002
MPASM 5.65                          MAIN.ASM   3-18-2016  15:07:15         PAGE  7


SYMBOL TABLE
  LABEL                             VALUE 

NOT_TO                            00000004
NOT_TX8                           00000006
NOT_W                             00000002
NOT_WRITE                         00000002
OBF                               00000006
OERR                              00000001
OPTION_REG                        00000081
P                                 00000004
PCFG0                             00000000
PCFG1                             00000001
PCFG2                             00000002
PCFG3                             00000003
PCL                               00000002
PCLATH                            0000000A
PCON                              0000008E
PEIE                              00000006
PEN                               00000002
PIE1                              0000008C
PIE2                              0000008D
PIR1                              0000000C
PIR2                              0000000D
PORTA                             00000005
PORTB                             00000006
PORTC                             00000007
PORTD                             00000008
PORTE                             00000009
PR2                               00000092
PS0                               00000000
PS1                               00000001
PS2                               00000002
PSA                               00000003
PSPIE                             00000007
PSPIF                             00000007
PSPMODE                           00000004
Poll_Timer1                       00000010
R                                 00000002
RA0                               00000000
RA1                               00000001
RA2                               00000002
RA3                               00000003
RA4                               00000004
RA5                               00000005
RB0                               00000000
RB1                               00000001
RB2                               00000002
RB3                               00000003
RB4                               00000004
RB5                               00000005
RB6                               00000006
RB7                               00000007
RBIE                              00000003
RBIF                              00000000
RC0                               00000000
MPASM 5.65                          MAIN.ASM   3-18-2016  15:07:15         PAGE  8


SYMBOL TABLE
  LABEL                             VALUE 

RC1                               00000001
RC2                               00000002
RC3                               00000003
RC4                               00000004
RC5                               00000005
RC6                               00000006
RC7                               00000007
RC8_9                             00000006
RC9                               00000006
RCD8                              00000000
RCEN                              00000003
RCIE                              00000005
RCIF                              00000005
RCREG                             0000001A
RCSTA                             00000018
RD                                00000000
RD0                               00000000
RD1                               00000001
RD2                               00000002
RD3                               00000003
RD4                               00000004
RD5                               00000005
RD6                               00000006
RD7                               00000007
RE0                               00000000
RE1                               00000001
RE2                               00000002
READ_WRITE                        00000002
RP0                               00000005
RP1                               00000006
RSEN                              00000001
RX9                               00000006
RX9D                              00000000
R_NOT_W                           00000002
R_W                               00000002
S                                 00000003
SEN                               00000000
SMP                               00000007
SPBRG                             00000099
SPEN                              00000007
SREN                              00000005
SSPADD                            00000093
SSPBUF                            00000013
SSPCON                            00000014
SSPCON2                           00000091
SSPEN                             00000005
SSPIE                             00000003
SSPIF                             00000003
SSPM0                             00000000
SSPM1                             00000001
SSPM2                             00000002
SSPM3                             00000003
SSPOV                             00000006
MPASM 5.65                          MAIN.ASM   3-18-2016  15:07:15         PAGE  9


SYMBOL TABLE
  LABEL                             VALUE 

SSPSTAT                           00000094
STATUS                            00000003
STOP                              00000017
SYNC                              00000004
Set_LED                           00000015
T0CS                              00000005
T0IE                              00000005
T0IF                              00000002
T0SE                              00000004
T1CKPS0                           00000004
T1CKPS1                           00000005
T1CON                             00000010
T1INSYNC                          00000002
T1OSCEN                           00000003
T1SYNC                            00000002
T2CKPS0                           00000000
T2CKPS1                           00000001
T2CON                             00000012
TMR0                              00000001
TMR0IE                            00000005
TMR0IF                            00000002
TMR1                              0000000E
TMR1CS                            00000001
TMR1H                             0000000F
TMR1IE                            00000000
TMR1IF                            00000000
TMR1L                             0000000E
TMR1ON                            00000000
TMR2                              00000011
TMR2IE                            00000001
TMR2IF                            00000001
TMR2ON                            00000002
TOUTPS0                           00000003
TOUTPS1                           00000004
TOUTPS2                           00000005
TOUTPS3                           00000006
TRISA                             00000085
TRISA0                            00000000
TRISA1                            00000001
TRISA2                            00000002
TRISA3                            00000003
TRISA4                            00000004
TRISA5                            00000005
TRISB                             00000086
TRISB0                            00000000
TRISB1                            00000001
TRISB2                            00000002
TRISB3                            00000003
TRISB4                            00000004
TRISB5                            00000005
TRISB6                            00000006
TRISB7                            00000007
TRISC                             00000087
MPASM 5.65                          MAIN.ASM   3-18-2016  15:07:15         PAGE 10


SYMBOL TABLE
  LABEL                             VALUE 

TRISC0                            00000000
TRISC1                            00000001
TRISC2                            00000002
TRISC3                            00000003
TRISC4                            00000004
TRISC5                            00000005
TRISC6                            00000006
TRISC7                            00000007
TRISD                             00000088
TRISD0                            00000000
TRISD1                            00000001
TRISD2                            00000002
TRISD3                            00000003
TRISD4                            00000004
TRISD5                            00000005
TRISD6                            00000006
TRISD7                            00000007
TRISE                             00000089
TRISE0                            00000000
TRISE1                            00000001
TRISE2                            00000002
TRMT                              00000001
TX8_9                             00000006
TX9                               00000006
TX9D                              00000000
TXD8                              00000000
TXEN                              00000005
TXIE                              00000004
TXIF                              00000004
TXREG                             00000019
TXSTA                             00000098
Table_Counter                     00000073
UA                                00000001
W                                 00000000
WCOL                              00000007
WR                                00000001
WREN                              00000002
WRERR                             00000003
Z                                 00000002
_BODEN_OFF                        00003FBF
_BODEN_ON                         00003FFF
_BOREN_OFF                        00003FBF
_BOREN_ON                         00003FFF
_CONFIG                           00002007
_CPD_OFF                          00003FFF
_CPD_ON                           00003EFF
_CP_ALL                           00000FCF
_CP_HALF                          00001FDF
_CP_OFF                           00003FFF
_CP_UPPER_256                     00002FEF
_DEBUG_OFF                        00003FFF
_DEBUG_ON                         000037FF
_DEVID1                           00002006
MPASM 5.65                          MAIN.ASM   3-18-2016  15:07:15         PAGE 11


SYMBOL TABLE
  LABEL                             VALUE 

_FOSC_EXTRC                       00003FFF
_FOSC_HS                          00003FFE
_FOSC_LP                          00003FFC
_FOSC_XT                          00003FFD
_HS_OSC                           00003FFE
_IDLOC0                           00002000
_IDLOC1                           00002001
_IDLOC2                           00002002
_IDLOC3                           00002003
_LP_OSC                           00003FFC
_LVP_OFF                          00003F7F
_LVP_ON                           00003FFF
_PWRTE_OFF                        00003FFF
_PWRTE_ON                         00003FF7
_RC_OSC                           00003FFF
_WDTE_OFF                         00003FFB
_WDTE_ON                          00003FFF
_WDT_OFF                          00003FFB
_WDT_ON                           00003FFF
_WRT_ENABLE_OFF                   00003DFF
_WRT_ENABLE_ON                    00003FFF
_WRT_OFF                          00003DFF
_WRT_ON                           00003FFF
_XT_OSC                           00003FFD
__16F877                          00000001
com                               00000077
dat                               00000078
init_PIN                          00000001
lcd_d1                            00000075
lcd_d2                            00000076
lcd_tmp                           00000074
table_entries                     0000007B
table_tmp                         0000007A
temp                              00000079

Errors   :     0
Warnings :     0 reported,     0 suppressed
Messages :     8 reported,     0 suppressed

