MPASM 5.65                          MAIN.ASM   3-11-2016  15:18:03         PAGE  1


LOC  OBJECT CODE     LINE SOURCE TEXT
  VALUE

                      00001       list p=16f877                 ; list directive to define processor
                      00002       #include <p16f877.inc>        ; processor specific variable definitions
                      00001         LIST
                      00002 
                      00003 ;==========================================================================
                      00004 ; Build date : Dec 08 2015
                      00005 ;  MPASM PIC16F877 processor include
                      00006 ; 
                      00007 ;  (c) Copyright 1999-2015 Microchip Technology, All rights reserved
                      00008 ;==========================================================================
                      00009 
                      00541         LIST
2007   3F72           00003       __CONFIG _CP_OFF & _WDT_OFF & _BODEN_ON & _PWRTE_ON & _HS_OSC & _WRT_ENABLE_ON & _CPD_OFF & _LVP_O
                            FF
                      00004       
                      00005       ; WORKINGGGGGGGGGGGGGGGG
                      00006 
                      00007 
                      00008         cblock  0x70
  00000070            00009                 COUNTH
  00000071            00010                 COUNTM  
  00000072            00011                 COUNTL  
  00000073            00012                 Table_Counter
  00000074            00013                 lcd_tmp 
  00000075            00014                 lcd_d1
  00000076            00015                 lcd_d2
  00000077            00016                 com     
  00000078            00017                 dat
  00000079            00018                 NumH
  0000007A            00019                 NumL
  0000007B            00020                 TenK
  0000007C            00021                 Thou
  0000007D            00022                 Hund
  0000007E            00023                 Tens
  0000007F            00024                 Ones
  00000080            00025                 Temp
  00000081            00026                 delay3
                      00027         endc    
                      00028         ;Declare constants for pin assignments (LCD on PORTD)
                      00029                 #define RS      PORTD,2
                      00030                 #define E       PORTD,3
                      00031 
                      00032                 #define UST     PORTC,3
                      00033                 #define US1E    PORTA,4
                      00034 
                      00035          ORG       0x0000     ;RESET vector must always be at 0x00
0000   2???           00036          goto      init       ;Just jump to the main code section.
                      00037          
                      00038 
                      00039 ;***************************************
                      00040 ; Delay: ~160us macro
                      00041 ;***************************************
                      00042 LCD_DELAY macro
MPASM 5.65                          MAIN.ASM   3-11-2016  15:18:03         PAGE  2


LOC  OBJECT CODE     LINE SOURCE TEXT
  VALUE

                      00043         movlw   0xFF
                      00044         movwf   lcd_d1
                      00045         decfsz  lcd_d1,f
                      00046         goto    $-1
                      00047         endm
                      00048         
                      00049 ;***************************************
                      00050 ; Delay: ~ 5ms
                      00051 ;***************************************
0001                  00052 DELAY1 
                      00053                                 ;4998 cycles
0001   30E7           00054         movlw   0xE7
0002   00F5           00055         movwf   lcd_d1
0003   3004           00056         movlw   0x04
0004   00F6           00057         movwf   lcd_d2
0005                  00058 Delay_0
0005   0BF5           00059         decfsz  lcd_d1, f
0006   2???           00060         goto    $+2
0007   0BF6           00061         decfsz  lcd_d2, f
0008   2???           00062         goto    Delay_0
                      00063 
                      00064                         ;2 cycles
0009   2???           00065         goto    $+1
000A   0008           00066         return
                      00067         
                      00068 ;***************************************
                      00069 ; Delay: ~10us
                      00070 ;***************************************
000B                  00071 delay10us
000B   3014           00072     movlw       d'20'
Message[302]: Register in operand not in bank 0.  Ensure that bank bits are correct.
000C   0081           00073     movwf       delay3
000D                  00074 Delay10usLoop
Message[302]: Register in operand not in bank 0.  Ensure that bank bits are correct.
000D   0B81           00075     decfsz      delay3, f
000E   2???           00076     goto        Delay10usLoop
000F   0008           00077     return
                      00078         
                      00079 
                      00080 
                      00081 ;***************************************
                      00082 ; Display macro
                      00083 ;***************************************
                      00084 Display macro   Message
                      00085                 local   loop_
                      00086                 local   end_
                      00087                 clrf    Table_Counter
                      00088                 clrw            
                      00089 loop_   movf    Table_Counter,W
                      00090                 call    Message
                      00091                 xorlw   B'00000000' ;check WORK reg to see if 0 is returned
                      00092                 btfsc   STATUS,Z
                      00093                         goto    end_
MPASM 5.65                          MAIN.ASM   3-11-2016  15:18:03         PAGE  3


LOC  OBJECT CODE     LINE SOURCE TEXT
  VALUE

                      00094                 call    WR_DATA
                      00095                 incf    Table_Counter,F
                      00096                 goto    loop_
                      00097 end_
                      00098                 endm
                      00099 
                      00100 ;***************************************
                      00101 ; Number to Printable
                      00102 ;***************************************
                      00103 PrintNumber macro       number
                      00104         ;movf       number ,W
                      00105         movfw       number
                      00106         call        DectoChar
                      00107         call        WR_DATA
                      00108         endm
                      00109 
                      00110 ; white and black sticker labels at bottom
                      00111 
                      00112 ;***************************************
                      00113 ; Initialize LCD
                      00114 ;***************************************
0010                  00115 init
0010   018B           00116          clrf      INTCON         ; No interrupts
                      00117 
0011   1683           00118          bsf       STATUS,RP0     ; select bank 1
0012   30FF           00119          movlw      0xFF
Message[302]: Register in operand not in bank 0.  Ensure that bank bits are correct.
0013   0085           00120          movwf      TRISA          ; All port A is input
0014   30F2           00121          movlw     b'11110010'    ; Set required keypad inputs
Message[302]: Register in operand not in bank 0.  Ensure that bank bits are correct.
0015   0086           00122          movwf     TRISB
Message[302]: Register in operand not in bank 0.  Ensure that bank bits are correct.
0016   0187           00123          clrf      TRISC          ; All port C is output
Message[302]: Register in operand not in bank 0.  Ensure that bank bits are correct.
0017   0188           00124          clrf      TRISD          ; All port D is output
                      00125          
                      00126          
                      00127 
0018   1283           00128          bcf       STATUS,RP0     ; select bank 0
0019   0185           00129          clrf      PORTA
001A   0186           00130          clrf      PORTB
001B   0187           00131          clrf      PORTC
001C   0188           00132          clrf      PORTD
                      00133           
001D   2???           00134          call      InitLCD        ;Initialize the LCD (code in lcd.asm; imported by lcd.inc)
                      00135 
                      00136 ;***************************************
                      00137 ; Main code
                      00138 ;***************************************
                      00139 Main    Display         Welcome_Msg
  0000                    M                 local   loop_
  0000                    M                 local   end_
001E   01F3               M                 clrf    Table_Counter
MPASM 5.65                          MAIN.ASM   3-11-2016  15:18:03         PAGE  4


LOC  OBJECT CODE     LINE SOURCE TEXT
  VALUE

001F   0103               M                 clrw            
0020   0873               M loop_   movf    Table_Counter,W
0021   2???               M                 call    Welcome_Msg
0022   3A00               M                 xorlw   B'00000000' ;check WORK reg to see if 0 is returned
0023   1903               M                 btfsc   STATUS,Z
0024   2???               M                         goto    end_
0025   2???               M                 call    WR_DATA
0026   0AF3               M                 incf    Table_Counter,F
0027   2???               M                 goto    loop_
0028                      M end_
                      00140          
0028                  00141 Main2
                      00142          
                      00143         Display         Alphabet
  0000                    M                 local   loop_
  0000                    M                 local   end_
0028   01F3               M                 clrf    Table_Counter
0029   0103               M                 clrw            
002A   0873               M loop_   movf    Table_Counter,W
002B   2???               M                 call    Alphabet
002C   3A00               M                 xorlw   B'00000000' ;check WORK reg to see if 0 is returned
002D   1903               M                 btfsc   STATUS,Z
002E   2???               M                         goto    end_
002F   2???               M                 call    WR_DATA
0030   0AF3               M                 incf    Table_Counter,F
0031   2???               M                 goto    loop_
0032                      M end_
                      00144          
0032   2???           00145         call            Read_US1 
                      00146         
                      00147         ;bsf        PORTA,0         ; for testing purposes to power sensor
                      00148          
0033   2???           00149         call            Clear_Display
                      00150         
0034   080F           00151         movf            TMR1H, W
0035   00F9           00152         movwf           NumH
0036   080E           00153         movf            TMR1L, W
0037   00FA           00154         movwf           NumL
                      00155         
0038   2???           00156         call            bin16_BCD
                      00157         
                      00158         PrintNumber     TenK
                          M         ;movf       number ,W
0039   087B               M         movfw       TenK
003A   2???               M         call        DectoChar
003B   2???               M         call        WR_DATA
                      00159         PrintNumber     Thou
                          M         ;movf       number ,W
003C   087C               M         movfw       Thou
003D   2???               M         call        DectoChar
003E   2???               M         call        WR_DATA
                      00160         PrintNumber     Hund
                          M         ;movf       number ,W
MPASM 5.65                          MAIN.ASM   3-11-2016  15:18:03         PAGE  5


LOC  OBJECT CODE     LINE SOURCE TEXT
  VALUE

003F   087D               M         movfw       Hund
0040   2???               M         call        DectoChar
0041   2???               M         call        WR_DATA
                      00161         PrintNumber     Tens
                          M         ;movf       number ,W
0042   087E               M         movfw       Tens
0043   2???               M         call        DectoChar
0044   2???               M         call        WR_DATA
                      00162         PrintNumber     Ones
                          M         ;movf       number ,W
0045   087F               M         movfw       Ones
0046   2???               M         call        DectoChar
0047   2???               M         call        WR_DATA
                      00163         
0048   2???           00164         call            HalfS
                      00165         
0049   2???           00166         call            Clear_Display
                      00167         
004A   2???           00168         goto            Main2
                      00169         
                      00170 
                      00171 
                      00172 ;SwtichLine
                      00173 ;               call            Switch_Lines
                      00174 ;               Display         Welcome_Msg
                      00175 
                      00176 ;ChangeToQuestionMark
                      00177 ;               movlw           b'11001011'
                      00178 ;               call            WR_INS
                      00179 ;               movlw           "?"
                      00180 ;               call            WR_DATA
                      00181 
                      00182 ;ShiftDisplayLeft
                      00183 ;               call            Clear_Display
                      00184 ;
                      00185 ;               Display         Alphabet
                      00186 ;
                      00187 ;Left   movlw           b'00011000'             ;Move to the left
                      00188 ;               call            WR_INS
                      00189 ;               call            HalfS
                      00190 ;               goto            Left                    ;repeat operation
                      00191 ;               
004B   2???           00192                 goto    $
                      00193 
                      00194                 
                      00195 ;***************************************
                      00196 ; read US
                      00197 ;**************************************
                      00198                 
004C                  00199 Read_US1
004C   018F           00200                 clrf    TMR1H
004D   018E           00201                 clrf    TMR1L
                      00202                 
MPASM 5.65                          MAIN.ASM   3-11-2016  15:18:03         PAGE  6


LOC  OBJECT CODE     LINE SOURCE TEXT
  VALUE

004E   1187           00203                 bcf     UST             ;make sure trigger is clear
004F   2???           00204                 call    DELAY1
                      00205                 ;Delay_5ms
                      00206                 
0050   1587           00207                 bsf     UST             ;trigger high, bottom sensor
0051   2???           00208                 call    delay10us               ;10us delay
0052   1187           00209                 bcf     UST             ;trigger low
                      00210                 
0053   1E05           00211                 btfss   US1E            ;wait for echo to go high
0054   2???           00212                 goto    $-1
0055   1410           00213                 bsf     T1CON,TMR1ON    ;turn on timer
                      00214                 
0056   1A05           00215                 btfsc   US1E            ;wait for echo to go low
0057   2???           00216                 goto    $-1
                      00217                 
0058   1010           00218                 bcf     T1CON,TMR1ON    ;turn off timer
0059   0008           00219                 return
                      00220 ;*******************************************************
                      00221 ;******             BCD                 ****************
                      00222 ;*******************************************************
                      00223         
                      00224 ;---------------- Binary (16-bit) to BCD -----------------------
                      00225 ;
                      00226 ;bin8_BCD:      ; --- Takes Binary.number in      NumL
                      00227 ;bin16_BCD:     ; --- Takes Binary.number in NumH:NumL 
                      00228                 ; --> Returns decimal.form  in TenK:Thou:Hund:Tens:Ones
                      00229 ;               btfsc   US1E            ;wait for echo to go low
                      00230 
                      00231 ; Uses variables
                      00232 ; NumH, NumL
                      00233 ; TenK, Thou, Hund, Tens, Ones
                      00234                 
                      00235 ;BCD    macro   NumH, NumL
                      00236 
005A                  00237 bin16_BCD
005A   0E79           00238         swapf   NumH, W
005B   390F           00239         andlw   0x0F
005C   3EF0           00240         addlw   0xF0
005D   00FC           00241         movwf   Thou 
005E   07FC           00242         addwf   Thou, F 
005F   3EE2           00243         addlw   0xE2 
0060   00FD           00244         movwf   Hund 
0061   3E32           00245         addlw   0x32 
0062   00FF           00246         movwf   Ones 
                      00247 
0063   0879           00248         movf    NumH, W 
0064   390F           00249         andlw   0x0F 
0065   07FD           00250         addwf   Hund, F 
0066   07FD           00251         addwf   Hund, F 
0067   07FF           00252         addwf   Ones, F 
0068   3EE9           00253         addlw   0xE9 
0069   00FE           00254         movwf   Tens 
006A   07FE           00255         addwf   Tens, F 
MPASM 5.65                          MAIN.ASM   3-11-2016  15:18:03         PAGE  7


LOC  OBJECT CODE     LINE SOURCE TEXT
  VALUE

006B   07FE           00256         addwf   Tens, F 
                      00257 
006C   0E7A           00258         swapf   NumL, W 
006D   390F           00259         andlw   0x0F 
006E   07FE           00260         addwf   Tens, F 
006F   07FF           00261         addwf   Ones, F 
                      00262 
0070   0DFE           00263         rlf    Tens, F 
0071   0DFF           00264         rlf    Ones, F 
0072   09FF           00265         comf    Ones, F 
0073   0DFF           00266         rlf    Ones, F 
                      00267 
0074   087A           00268         movf    NumL, W 
0075   390F           00269         andlw   0x0F 
0076   07FF           00270         addwf   Ones, F 
0077   0DFC           00271         rlf    Thou,F 
                      00272 
0078   3007           00273         movlw   0x07 
0079   00FB           00274         movwf   TenK 
                      00275 
007A   300A           00276         movlw   0x0A
007B                  00277 Lb1
007B   03FE           00278         decf    Tens, F 
007C   07FF           00279         addwf   Ones, F 
007D   1C03           00280         btfss   STATUS, C 
007E   2???           00281         goto            Lb1 
007F                  00282 Lb2
007F   03FD           00283         decf    Hund, F 
0080   07FE           00284         addwf   Tens, F 
0081   1C03           00285         btfss   STATUS,C 
0082   2???           00286         goto            Lb2 
0083                  00287 Lb3
0083   03FC           00288         decf    Thou, F 
0084   07FD           00289         addwf   Hund, F 
0085   1C03           00290         btfss   STATUS,C
0086   2???           00291         goto            Lb3 
0087                  00292 Lb4
0087   03FB           00293         decf    TenK, F 
0088   07FC           00294         addwf   Thou, F 
0089   1C03           00295         btfss   STATUS,C 
008A   2???           00296         goto            Lb4 
                      00297 
008B   3400           00298         retlw   0
008C   0008           00299         return
                      00300 ;endm
                      00301 
                      00302 
                      00303         
                      00304 ;***************************************
                      00305 ; Look up table
                      00306 ;***************************************
                      00307 
008D                  00308 Welcome_Msg     
MPASM 5.65                          MAIN.ASM   3-11-2016  15:18:03         PAGE  8


LOC  OBJECT CODE     LINE SOURCE TEXT
  VALUE

008D   0782           00309                 addwf   PCL,F
008E   3448 3465 346C 00310                 dt              "Hello World!", 0
       346C 346F 3420 
       3457 346F 3472 
       346C 3464 3421 
       3400 
                      00311 
009B                  00312 Alphabet
009B   0782           00313                 addwf   PCL,F
009C   3441 3442 3443 00314                 dt              "ABCDEFGHIJKLMNOPQRSTUVWXYZ",0
       3444 3445 3446 
       3447 3448 3449 
       344A 344B 344C 
       344D 344E 344F 
       3450 3451 3452 
       3453 3454 3455 
       3456 3457 3458 
       3459 345A 3400 
                      00315         
00B7                  00316 DectoChar
                      00317         
                      00318         ;Change Page
Message[302]: Register in operand not in bank 0.  Ensure that bank bits are correct.
00B7   0080           00319         movwf   Temp
00B8   30??           00320         movlw   HIGH DectoCharEntries
00B9   008A           00321         movwf   PCLATH
Message[302]: Register in operand not in bank 0.  Ensure that bank bits are correct.
00BA   0800           00322         movf    Temp,w
00BB   3E??           00323         addlw   LOW DectoCharEntries
00BC   1803           00324         btfsc   STATUS,C
00BD   0A8A           00325             incf    PCLATH,f
00BE   0082           00326         movwf   PCL     
00BF   0782           00327         addwf    PCL,F
00C0                  00328 DectoCharEntries
00C0   3430 3431 3432 00329         dt        "0123456789",  0
       3433 3434 3435 
       3436 3437 3438 
       3439 3400 
                      00330 
                      00331 ;***************************************
                      00332 ; LCD control
                      00333 ;***************************************
00CB                  00334 Switch_Lines
00CB   30C0           00335                 movlw   B'11000000'
00CC   2???           00336                 call    WR_INS
00CD   0008           00337                 return
                      00338 
00CE                  00339 Clear_Display
00CE   3001           00340                 movlw   B'00000001'
00CF   2???           00341                 call    WR_INS
00D0   0008           00342                 return
                      00343 
                      00344 ;***************************************
MPASM 5.65                          MAIN.ASM   3-11-2016  15:18:03         PAGE  9


LOC  OBJECT CODE     LINE SOURCE TEXT
  VALUE

                      00345 ; Delay 0.5s
                      00346 ;***************************************
00D1                  00347 HalfS   
  0000                00348         local   HalfS_0
00D1   3088           00349       movlw 0x88
00D2   00F0           00350       movwf COUNTH
00D3   30BD           00351       movlw 0xBD
00D4   00F1           00352       movwf COUNTM
00D5   3003           00353       movlw 0x03
00D6   00F2           00354       movwf COUNTL
                      00355 
00D7                  00356 HalfS_0
00D7   0BF0           00357       decfsz COUNTH, f
00D8   2???           00358       goto   $+2
00D9   0BF1           00359       decfsz COUNTM, f
00DA   2???           00360       goto   $+2
00DB   0BF2           00361       decfsz COUNTL, f
00DC   2???           00362       goto   HalfS_0
                      00363 
00DD   2???           00364       goto $+1
00DE   0000           00365       nop
00DF   0000           00366       nop
00E0   0008           00367                 return
                      00368 
                      00369 
                      00370 ;******* LCD-related subroutines *******
                      00371 
                      00372 
                      00373     ;***********************************
00E1                  00374 InitLCD
00E1   1283           00375         bcf STATUS,RP0
00E2   1588           00376         bsf E     ;E default high
                      00377         
                      00378         ;Wait for LCD POR to finish (~15ms)
00E3   2???           00379         call lcdLongDelay
00E4   2???           00380         call lcdLongDelay
00E5   2???           00381         call lcdLongDelay
                      00382 
                      00383         ;Ensure 8-bit mode first (no way to immediately guarantee 4-bit mode)
                      00384         ; -> Send b'0011' 3 times
00E6   3033           00385         movlw   b'00110011'
00E7   2???           00386         call    WR_INS
00E8   2???           00387         call lcdLongDelay
00E9   2???           00388         call lcdLongDelay
00EA   3032           00389         movlw   b'00110010'
00EB   2???           00390         call    WR_INS
00EC   2???           00391         call lcdLongDelay
00ED   2???           00392         call lcdLongDelay
                      00393 
                      00394         ; 4 bits, 2 lines, 5x7 dots
00EE   3028           00395         movlw   b'00101000'
00EF   2???           00396         call    WR_INS
00F0   2???           00397         call lcdLongDelay
MPASM 5.65                          MAIN.ASM   3-11-2016  15:18:03         PAGE 10


LOC  OBJECT CODE     LINE SOURCE TEXT
  VALUE

00F1   2???           00398         call lcdLongDelay
                      00399 
                      00400         ; display on/off
00F2   300C           00401         movlw   b'00001100'
00F3   2???           00402         call    WR_INS
00F4   2???           00403         call lcdLongDelay
00F5   2???           00404         call lcdLongDelay
                      00405         
                      00406         ; Entry mode
00F6   3006           00407         movlw   b'00000110'
00F7   2???           00408         call    WR_INS
00F8   2???           00409         call lcdLongDelay
00F9   2???           00410         call lcdLongDelay
                      00411 
                      00412         ; Clear ram
00FA   3001           00413         movlw   b'00000001'
00FB   2???           00414         call    WR_INS
00FC   2???           00415         call lcdLongDelay
00FD   2???           00416         call lcdLongDelay
00FE   0008           00417         return
                      00418     ;************************************
                      00419 
                      00420     ;ClrLCD: Clear the LCD display
00FF                  00421 ClrLCD
00FF   3001           00422         movlw   B'00000001'
0100   2???           00423         call    WR_INS
0101   0008           00424     return
                      00425 
                      00426     ;****************************************
                      00427     ; Write command to LCD - Input : W , output : -
                      00428     ;****************************************
0102                  00429 WR_INS
0102   1108           00430         bcf             RS                              ;clear RS
0103   00F7           00431         movwf   com                             ;W --> com
0104   39F0           00432         andlw   0xF0                    ;mask 4 bits MSB w = X0
0105   0088           00433         movwf   PORTD                   ;Send 4 bits MSB
0106   1588           00434         bsf             E                               ;
0107   2???           00435         call    lcdLongDelay    ;__    __
0108   1188           00436         bcf             E                               ;  |__|
0109   0E77           00437         swapf   com,w
010A   39F0           00438         andlw   0xF0                    ;1111 0010
010B   0088           00439         movwf   PORTD                   ;send 4 bits LSB
010C   1588           00440         bsf             E                               ;
010D   2???           00441         call    lcdLongDelay    ;__    __
010E   1188           00442         bcf             E                               ;  |__|
010F   2???           00443         call    lcdLongDelay
0110   0008           00444         return
                      00445 
                      00446     ;****************************************
                      00447     ; Write data to LCD - Input : W , output : -
                      00448     ;****************************************
0111                  00449 WR_DATA
0111   1508           00450         bsf             RS                              
MPASM 5.65                          MAIN.ASM   3-11-2016  15:18:03         PAGE 11


LOC  OBJECT CODE     LINE SOURCE TEXT
  VALUE

0112   00F8           00451         movwf   dat
0113   0878           00452         movf    dat,w
0114   39F0           00453         andlw   0xF0            
0115   3E04           00454         addlw   4
0116   0088           00455         movwf   PORTD           
0117   1588           00456         bsf             E                               ;
0118   2???           00457         call    lcdLongDelay    ;__    __
0119   1188           00458         bcf             E                               ;  |__|
011A   0E78           00459         swapf   dat,w
011B   39F0           00460         andlw   0xF0            
011C   3E04           00461         addlw   4
011D   0088           00462         movwf   PORTD           
011E   1588           00463         bsf             E                               ;
011F   2???           00464         call    lcdLongDelay    ;__    __
0120   1188           00465         bcf             E                               ;  |__|
0121   0008           00466         return
                      00467 
0122                  00468 lcdLongDelay
0122   3014           00469     movlw d'20'
0123   00F6           00470     movwf lcd_d2
0124                  00471 LLD_LOOP
                      00472     LCD_DELAY
0124   30FF               M         movlw   0xFF
0125   00F5               M         movwf   lcd_d1
0126   0BF5               M         decfsz  lcd_d1,f
0127   2???               M         goto    $-1
0128   0BF6           00473     decfsz lcd_d2,f
0129   2???           00474     goto LLD_LOOP
012A   0008           00475     return
                      00476     
                      00477     
3F72                  00478         END
MPASM 5.65                          MAIN.ASM   3-11-2016  15:18:03         PAGE 12


SYMBOL TABLE
  LABEL                             VALUE 

ACKDT                             00000005
ACKEN                             00000004
ACKSTAT                           00000006
ADCON0                            0000001F
ADCON1                            0000009F
ADCS0                             00000006
ADCS1                             00000007
ADDEN                             00000003
ADFM                              00000007
ADIE                              00000006
ADIF                              00000006
ADON                              00000000
ADRESH                            0000001E
ADRESL                            0000009E
Alphabet                          0000009B
BCLIE                             00000003
BCLIF                             00000003
BF                                00000000
BRGH                              00000002
C                                 00000000
CCP1CON                           00000017
CCP1IE                            00000002
CCP1IF                            00000002
CCP1M0                            00000000
CCP1M1                            00000001
CCP1M2                            00000002
CCP1M3                            00000003
CCP1X                             00000005
CCP1Y                             00000004
CCP2CON                           0000001D
CCP2IE                            00000000
CCP2IF                            00000000
CCP2M0                            00000000
CCP2M1                            00000001
CCP2M2                            00000002
CCP2M3                            00000003
CCP2X                             00000005
CCP2Y                             00000004
CCPR1                             00000015
CCPR1H                            00000016
CCPR1L                            00000015
CCPR2                             0000001B
CCPR2H                            0000001C
CCPR2L                            0000001B
CHS0                              00000003
CHS1                              00000004
CHS2                              00000005
CKE                               00000006
CKP                               00000004
COUNTH                            00000070
COUNTL                            00000072
COUNTM                            00000071
CREN                              00000004
MPASM 5.65                          MAIN.ASM   3-11-2016  15:18:03         PAGE 13


SYMBOL TABLE
  LABEL                             VALUE 

CSRC                              00000007
Clear_Display                     000000CE
ClrLCD                            000000FF
D                                 00000005
DATA_ADDRESS                      00000005
DC                                00000001
DELAY1                            00000001
D_A                               00000005
D_NOT_A                           00000005
DectoChar                         000000B7
DectoCharEntries                  000000C0
Delay10usLoop                     0000000D
Delay_0                           00000005
Display                           
E                                 PORTD,3
EEADR                             0000010D
EEADRH                            0000010F
EECON1                            0000018C
EECON2                            0000018D
EEDATA                            0000010C
EEDATH                            0000010E
EEIE                              00000004
EEIF                              00000004
EEPGD                             00000007
F                                 00000001
FERR                              00000002
FSR                               00000004
GCEN                              00000007
GIE                               00000007
GO                                00000002
GO_DONE                           00000002
GO_NOT_DONE                       00000002
HalfS                             000000D1
Hund                              0000007D
I2C_DATA                          00000005
I2C_READ                          00000002
I2C_START                         00000003
I2C_STOP                          00000004
IBF                               00000007
IBOV                              00000005
INDF                              00000000
INTCON                            0000000B
INTE                              00000004
INTEDG                            00000006
INTF                              00000001
IRP                               00000007
InitLCD                           000000E1
LCD_DELAY                         
LLD_LOOP                          00000124
Lb1                               0000007B
Lb2                               0000007F
Lb3                               00000083
Lb4                               00000087
MPASM 5.65                          MAIN.ASM   3-11-2016  15:18:03         PAGE 14


SYMBOL TABLE
  LABEL                             VALUE 

Main                              0000001E
Main2                             00000028
NOT_A                             00000005
NOT_ADDRESS                       00000005
NOT_BO                            00000000
NOT_BOR                           00000000
NOT_DONE                          00000002
NOT_PD                            00000003
NOT_POR                           00000001
NOT_RBPU                          00000007
NOT_RC8                           00000006
NOT_T1SYNC                        00000002
NOT_TO                            00000004
NOT_TX8                           00000006
NOT_W                             00000002
NOT_WRITE                         00000002
NumH                              00000079
NumL                              0000007A
OBF                               00000006
OERR                              00000001
OPTION_REG                        00000081
Ones                              0000007F
P                                 00000004
PCFG0                             00000000
PCFG1                             00000001
PCFG2                             00000002
PCFG3                             00000003
PCL                               00000002
PCLATH                            0000000A
PCON                              0000008E
PEIE                              00000006
PEN                               00000002
PIE1                              0000008C
PIE2                              0000008D
PIR1                              0000000C
PIR2                              0000000D
PORTA                             00000005
PORTB                             00000006
PORTC                             00000007
PORTD                             00000008
PORTE                             00000009
PR2                               00000092
PS0                               00000000
PS1                               00000001
PS2                               00000002
PSA                               00000003
PSPIE                             00000007
PSPIF                             00000007
PSPMODE                           00000004
PrintNumber                       
R                                 00000002
RA0                               00000000
RA1                               00000001
MPASM 5.65                          MAIN.ASM   3-11-2016  15:18:03         PAGE 15


SYMBOL TABLE
  LABEL                             VALUE 

RA2                               00000002
RA3                               00000003
RA4                               00000004
RA5                               00000005
RB0                               00000000
RB1                               00000001
RB2                               00000002
RB3                               00000003
RB4                               00000004
RB5                               00000005
RB6                               00000006
RB7                               00000007
RBIE                              00000003
RBIF                              00000000
RC0                               00000000
RC1                               00000001
RC2                               00000002
RC3                               00000003
RC4                               00000004
RC5                               00000005
RC6                               00000006
RC7                               00000007
RC8_9                             00000006
RC9                               00000006
RCD8                              00000000
RCEN                              00000003
RCIE                              00000005
RCIF                              00000005
RCREG                             0000001A
RCSTA                             00000018
RD                                00000000
RD0                               00000000
RD1                               00000001
RD2                               00000002
RD3                               00000003
RD4                               00000004
RD5                               00000005
RD6                               00000006
RD7                               00000007
RE0                               00000000
RE1                               00000001
RE2                               00000002
READ_WRITE                        00000002
RP0                               00000005
RP1                               00000006
RS                                PORTD,2
RSEN                              00000001
RX9                               00000006
RX9D                              00000000
R_NOT_W                           00000002
R_W                               00000002
Read_US1                          0000004C
S                                 00000003
MPASM 5.65                          MAIN.ASM   3-11-2016  15:18:03         PAGE 16


SYMBOL TABLE
  LABEL                             VALUE 

SEN                               00000000
SMP                               00000007
SPBRG                             00000099
SPEN                              00000007
SREN                              00000005
SSPADD                            00000093
SSPBUF                            00000013
SSPCON                            00000014
SSPCON2                           00000091
SSPEN                             00000005
SSPIE                             00000003
SSPIF                             00000003
SSPM0                             00000000
SSPM1                             00000001
SSPM2                             00000002
SSPM3                             00000003
SSPOV                             00000006
SSPSTAT                           00000094
STATUS                            00000003
SYNC                              00000004
Switch_Lines                      000000CB
T0CS                              00000005
T0IE                              00000005
T0IF                              00000002
T0SE                              00000004
T1CKPS0                           00000004
T1CKPS1                           00000005
T1CON                             00000010
T1INSYNC                          00000002
T1OSCEN                           00000003
T1SYNC                            00000002
T2CKPS0                           00000000
T2CKPS1                           00000001
T2CON                             00000012
TMR0                              00000001
TMR0IE                            00000005
TMR0IF                            00000002
TMR1                              0000000E
TMR1CS                            00000001
TMR1H                             0000000F
TMR1IE                            00000000
TMR1IF                            00000000
TMR1L                             0000000E
TMR1ON                            00000000
TMR2                              00000011
TMR2IE                            00000001
TMR2IF                            00000001
TMR2ON                            00000002
TOUTPS0                           00000003
TOUTPS1                           00000004
TOUTPS2                           00000005
TOUTPS3                           00000006
TRISA                             00000085
MPASM 5.65                          MAIN.ASM   3-11-2016  15:18:03         PAGE 17


SYMBOL TABLE
  LABEL                             VALUE 

TRISA0                            00000000
TRISA1                            00000001
TRISA2                            00000002
TRISA3                            00000003
TRISA4                            00000004
TRISA5                            00000005
TRISB                             00000086
TRISB0                            00000000
TRISB1                            00000001
TRISB2                            00000002
TRISB3                            00000003
TRISB4                            00000004
TRISB5                            00000005
TRISB6                            00000006
TRISB7                            00000007
TRISC                             00000087
TRISC0                            00000000
TRISC1                            00000001
TRISC2                            00000002
TRISC3                            00000003
TRISC4                            00000004
TRISC5                            00000005
TRISC6                            00000006
TRISC7                            00000007
TRISD                             00000088
TRISD0                            00000000
TRISD1                            00000001
TRISD2                            00000002
TRISD3                            00000003
TRISD4                            00000004
TRISD5                            00000005
TRISD6                            00000006
TRISD7                            00000007
TRISE                             00000089
TRISE0                            00000000
TRISE1                            00000001
TRISE2                            00000002
TRMT                              00000001
TX8_9                             00000006
TX9                               00000006
TX9D                              00000000
TXD8                              00000000
TXEN                              00000005
TXIE                              00000004
TXIF                              00000004
TXREG                             00000019
TXSTA                             00000098
Table_Counter                     00000073
Temp                              00000080
TenK                              0000007B
Tens                              0000007E
Thou                              0000007C
UA                                00000001
MPASM 5.65                          MAIN.ASM   3-11-2016  15:18:03         PAGE 18


SYMBOL TABLE
  LABEL                             VALUE 

US1E                              PORTA,4
UST                               PORTC,3
W                                 00000000
WCOL                              00000007
WR                                00000001
WREN                              00000002
WRERR                             00000003
WR_DATA                           00000111
WR_INS                            00000102
Welcome_Msg                       0000008D
Z                                 00000002
_.org_0_0006                      00000006
_.org_0_0009                      00000009
_.org_0_004B                      0000004B
_.org_0_0054                      00000054
_.org_0_0057                      00000057
_.org_0_00D8                      000000D8
_.org_0_00DA                      000000DA
_.org_0_00DD                      000000DD
_.org_0_0127                      00000127
_BODEN_OFF                        00003FBF
_BODEN_ON                         00003FFF
_BOREN_OFF                        00003FBF
_BOREN_ON                         00003FFF
_CONFIG                           00002007
_CPD_OFF                          00003FFF
_CPD_ON                           00003EFF
_CP_ALL                           00000FCF
_CP_HALF                          00001FDF
_CP_OFF                           00003FFF
_CP_UPPER_256                     00002FEF
_DEBUG_OFF                        00003FFF
_DEBUG_ON                         000037FF
_DEVID1                           00002006
_FOSC_EXTRC                       00003FFF
_FOSC_HS                          00003FFE
_FOSC_LP                          00003FFC
_FOSC_XT                          00003FFD
_HS_OSC                           00003FFE
_IDLOC0                           00002000
_IDLOC1                           00002001
_IDLOC2                           00002002
_IDLOC3                           00002003
_LP_OSC                           00003FFC
_LVP_OFF                          00003F7F
_LVP_ON                           00003FFF
_PWRTE_OFF                        00003FFF
_PWRTE_ON                         00003FF7
_RC_OSC                           00003FFF
_WDTE_OFF                         00003FFB
_WDTE_ON                          00003FFF
_WDT_OFF                          00003FFB
_WDT_ON                           00003FFF
MPASM 5.65                          MAIN.ASM   3-11-2016  15:18:03         PAGE 19


SYMBOL TABLE
  LABEL                             VALUE 

_WRT_ENABLE_OFF                   00003DFF
_WRT_ENABLE_ON                    00003FFF
_WRT_OFF                          00003DFF
_WRT_ON                           00003FFF
_XT_OSC                           00003FFD
__16F877                          00000001
bin16_BCD                         0000005A
com                               00000077
dat                               00000078
delay10us                         0000000B
delay3                            00000081
init                              00000010
lcdLongDelay                      00000122
lcd_d1                            00000075
lcd_d2                            00000076
lcd_tmp                           00000074

Errors   :     0
Warnings :     0 reported,     0 suppressed
Messages :     8 reported,     0 suppressed

